; Function Attrs: mustprogress nofree norecurse nosync nounwind memory(read, argmem: readwrite, inaccessiblemem: none) uwtable
define void @_ZNK6casadi17Feasiblesqpmethod9tr_updateEPvRdd(ptr nocapture noundef nonnull readonly align 8 dereferenceable(2392) %0, ptr nocapture noundef readonly %1, ptr nocapture noundef nonnull align 8 dereferenceable(8) %2, double noundef %3) local_unnamed_addr #11 align 2 {
  %5 = getelementptr inbounds i8, ptr %0, i64 2272
  %6 = load double, ptr %5, align 8
  %7 = fcmp ogt double %6, %3
  br i1 %7, label %8, label %28

8:                                                ; preds = %4
  %9 = getelementptr inbounds i8, ptr %0, i64 2288
  %10 = load double, ptr %9, align 8
  %11 = getelementptr inbounds i8, ptr %0, i64 1640
  %12 = load i64, ptr %11, align 8
  %13 = getelementptr inbounds i8, ptr %1, i64 416
  %14 = load ptr, ptr %13, align 8
  %15 = getelementptr inbounds i8, ptr %1, i64 496
  %16 = load ptr, ptr %15, align 8
  %17 = icmp sgt i64 %12, 0
  br i1 %17, label %.lr.ph.i, label %_ZN6casadi22casadi_masked_norm_infIdEET_xPKS1_PKx.exit

.lr.ph.i:                                         ; preds = %8, %25
  %.010.i = phi double [ %.1.i, %25 ], [ 0.000000e+00, %8 ]
  %.089.i = phi i64 [ %26, %25 ], [ 0, %8 ]
  %18 = getelementptr inbounds i64, ptr %16, i64 %.089.i
  %19 = load i64, ptr %18, align 8
  %.not.i = icmp eq i64 %19, 0
  br i1 %.not.i, label %25, label %20

20:                                               ; preds = %.lr.ph.i
  %21 = getelementptr inbounds double, ptr %14, i64 %.089.i
  %22 = load double, ptr %21, align 8
  %23 = tail call double @llvm.fabs.f64(double %22)
  %24 = tail call double @llvm.maxnum.f64(double %.010.i, double %23)
  br label %25

25:                                               ; preds = %20, %.lr.ph.i
  %.1.i = phi double [ %24, %20 ], [ %.010.i, %.lr.ph.i ]
  %26 = add nuw nsw i64 %.089.i, 1
  %exitcond.not.i = icmp eq i64 %26, %12
  br i1 %exitcond.not.i, label %_ZN6casadi22casadi_masked_norm_infIdEET_xPKS1_PKx.exit, label %.lr.ph.i, !llvm.loop !57

_ZN6casadi22casadi_masked_norm_infIdEET_xPKS1_PKx.exit: ; preds = %25, %8
  %.0.lcssa.i = phi double [ 0.000000e+00, %8 ], [ %.1.i, %25 ]
  %27 = fmul double %10, %.0.lcssa.i
  br label %.sink.split

28:                                               ; preds = %4
  %29 = getelementptr inbounds i8, ptr %0, i64 2280
  %30 = load double, ptr %29, align 8
  %31 = fcmp olt double %30, %3
  br i1 %31, label %32, label %62

32:                                               ; preds = %28
  %33 = getelementptr inbounds i8, ptr %0, i64 1640
  %34 = load i64, ptr %33, align 8
  %35 = getelementptr inbounds i8, ptr %1, i64 416
  %36 = load ptr, ptr %35, align 8
  %37 = getelementptr inbounds i8, ptr %1, i64 496
  %38 = load ptr, ptr %37, align 8
  %39 = icmp sgt i64 %34, 0
  br i1 %39, label %.lr.ph.i14, label %_ZN6casadi22casadi_masked_norm_infIdEET_xPKS1_PKx.exit20

.lr.ph.i14:                                       ; preds = %32, %47
  %.010.i15 = phi double [ %.1.i18, %47 ], [ 0.000000e+00, %32 ]
  %.089.i16 = phi i64 [ %48, %47 ], [ 0, %32 ]
  %40 = getelementptr inbounds i64, ptr %38, i64 %.089.i16
  %41 = load i64, ptr %40, align 8
  %.not.i17 = icmp eq i64 %41, 0
  br i1 %.not.i17, label %47, label %42

42:                                               ; preds = %.lr.ph.i14
  %43 = getelementptr inbounds double, ptr %36, i64 %.089.i16
  %44 = load double, ptr %43, align 8
  %45 = tail call double @llvm.fabs.f64(double %44)
  %46 = tail call double @llvm.maxnum.f64(double %.010.i15, double %45)
  br label %47

47:                                               ; preds = %42, %.lr.ph.i14
  %.1.i18 = phi double [ %46, %42 ], [ %.010.i15, %.lr.ph.i14 ]
  %48 = add nuw nsw i64 %.089.i16, 1
  %exitcond.not.i19 = icmp eq i64 %48, %34
  br i1 %exitcond.not.i19, label %_ZN6casadi22casadi_masked_norm_infIdEET_xPKS1_PKx.exit20, label %.lr.ph.i14, !llvm.loop !57

_ZN6casadi22casadi_masked_norm_infIdEET_xPKS1_PKx.exit20: ; preds = %47, %32
  %.0.lcssa.i13 = phi double [ 0.000000e+00, %32 ], [ %.1.i18, %47 ]
  %49 = load double, ptr %2, align 8
  %50 = fsub double %.0.lcssa.i13, %49
  %51 = tail call noundef double @llvm.fabs.f64(double %50)
  %52 = getelementptr inbounds i8, ptr %0, i64 2256
  %53 = load double, ptr %52, align 8
  %54 = fcmp olt double %51, %53
  br i1 %54, label %55, label %62

55:                                               ; preds = %_ZN6casadi22casadi_masked_norm_infIdEET_xPKS1_PKx.exit20
  %56 = getelementptr inbounds i8, ptr %0, i64 2296
  %57 = load double, ptr %56, align 8
  %58 = fmul double %49, %57
  %59 = getelementptr inbounds i8, ptr %0, i64 2336
  %60 = load double, ptr %59, align 8
  %61 = tail call double @llvm.minnum.f64(double %58, double %60)
  br label %.sink.split

.sink.split:                                      ; preds = %_ZN6casadi22casadi_masked_norm_infIdEET_xPKS1_PKx.exit, %55
  %.sink = phi double [ %61, %55 ], [ %27, %_ZN6casadi22casadi_masked_norm_infIdEET_xPKS1_PKx.exit ]
  store double %.sink, ptr %2, align 8
  br label %62

62:                                               ; preds = %.sink.split, %28, %_ZN6casadi22casadi_masked_norm_infIdEET_xPKS1_PKx.exit20
  ret void
}